target datalayout = "e-m:e-p270:32:32-p271:32:32-p272:64:64-i64:64-i128:128-f80:128-n8:16:32:64-S128"
target triple = "x86_64-pc-linux-gnu"

%struct.CordRep = type { %struct.Generic, %union.ConcatOrFunc }
%struct.Generic = type { i8, i8, i8, i8, i64 }
%union.ConcatOrFunc = type { %struct.Concatenation }
%struct.Concatenation = type { ptr, ptr }
%struct.CORD_Pos = type { i64, i32, ptr, i64, i64, [49 x %struct.CORD_pe], [8 x i8] }
%struct.CORD_pe = type { ptr, i64 }

; Function Attrs: nounwind uwtable
define internal void @CORD_extend_path(ptr noundef %0) #0 {
  %2 = alloca ptr, align 8
  %3 = alloca ptr, align 8
  %4 = alloca ptr, align 8
  %5 = alloca i64, align 8
  %6 = alloca i64, align 8
  %7 = alloca i64, align 8
  %8 = alloca ptr, align 8
  %9 = alloca i64, align 8
  store ptr %0, ptr %2, align 8, !tbaa !53
  call void @llvm.lifetime.start.p0(i64 8, ptr %3) #9
  %10 = load ptr, ptr %2, align 8, !tbaa !53
  %11 = getelementptr inbounds %struct.CORD_Pos, ptr %10, i64 0
  %12 = getelementptr inbounds nuw %struct.CORD_Pos, ptr %11, i32 0, i32 5
  %13 = load ptr, ptr %2, align 8, !tbaa !53
  %14 = getelementptr inbounds %struct.CORD_Pos, ptr %13, i64 0
  %15 = getelementptr inbounds nuw %struct.CORD_Pos, ptr %14, i32 0, i32 1
  %16 = load i32, ptr %15, align 8, !tbaa !55
  %17 = sext i32 %16 to i64
  %18 = getelementptr inbounds [49 x %struct.CORD_pe], ptr %12, i64 0, i64 %17
  store ptr %18, ptr %3, align 8, !tbaa !57
  call void @llvm.lifetime.start.p0(i64 8, ptr %4) #9
  %19 = load ptr, ptr %3, align 8, !tbaa !57
  %20 = getelementptr inbounds nuw %struct.CORD_pe, ptr %19, i32 0, i32 0
  %21 = load ptr, ptr %20, align 8, !tbaa !59
  store ptr %21, ptr %4, align 8, !tbaa !7
  call void @llvm.lifetime.start.p0(i64 8, ptr %5) #9
  %22 = load ptr, ptr %2, align 8, !tbaa !53
  %23 = getelementptr inbounds %struct.CORD_Pos, ptr %22, i64 0
  %24 = getelementptr inbounds nuw %struct.CORD_Pos, ptr %23, i32 0, i32 0
  %25 = load i64, ptr %24, align 8, !tbaa !61
  store i64 %25, ptr %5, align 8, !tbaa !13
  call void @llvm.lifetime.start.p0(i64 8, ptr %6) #9
  %26 = load ptr, ptr %3, align 8, !tbaa !57
  %27 = getelementptr inbounds nuw %struct.CORD_pe, ptr %26, i32 0, i32 1
  %28 = load i64, ptr %27, align 8, !tbaa !62
  store i64 %28, ptr %6, align 8, !tbaa !13
  call void @llvm.lifetime.start.p0(i64 8, ptr %7) #9
  %29 = load ptr, ptr %4, align 8, !tbaa !7
  %30 = load i8, ptr %29, align 1, !tbaa !17
  %31 = sext i8 %30 to i32
  %32 = icmp ne i32 %31, 0
  br i1 %32, label %33, label %36

33:                                               ; preds = %1
  %34 = load ptr, ptr %4, align 8, !tbaa !7
  %35 = call i64 @strlen(ptr noundef %34) #10
  br label %41

36:                                               ; preds = %1
  %37 = load ptr, ptr %4, align 8, !tbaa !7
  %38 = getelementptr inbounds nuw %struct.CordRep, ptr %37, i32 0, i32 0
  %39 = getelementptr inbounds nuw %struct.Generic, ptr %38, i32 0, i32 4
  %40 = load i64, ptr %39, align 8, !tbaa !24
  br label %41

41:                                               ; preds = %36, %33
  %42 = phi i64 [ %35, %33 ], [ %40, %36 ]
  store i64 %42, ptr %7, align 8, !tbaa !13
  br label %43

43:                                               ; preds = %152, %41
  %44 = load ptr, ptr %4, align 8, !tbaa !7
  %45 = load i8, ptr %44, align 1, !tbaa !17
  %46 = sext i8 %45 to i32
  %47 = icmp ne i32 %46, 0
  br i1 %47, label %55, label %48

48:                                               ; preds = %43
  %49 = load ptr, ptr %4, align 8, !tbaa !7
  %50 = getelementptr inbounds nuw %struct.CordRep, ptr %49, i32 0, i32 0
  %51 = getelementptr inbounds nuw %struct.Generic, ptr %50, i32 0, i32 1
  %52 = load i8, ptr %51, align 1, !tbaa !19
  %53 = sext i8 %52 to i32
  %54 = icmp eq i32 %53, 1
  br label %55

55:                                               ; preds = %48, %43
  %56 = phi i1 [ false, %43 ], [ %54, %48 ]
  br i1 %56, label %57, label %158

57:                                               ; preds = %55
  call void @llvm.lifetime.start.p0(i64 8, ptr %8) #9
  %58 = load ptr, ptr %4, align 8, !tbaa !7
  %59 = getelementptr inbounds nuw %struct.CordRep, ptr %58, i32 0, i32 1
  store ptr %59, ptr %8, align 8, !tbaa !22
  call void @llvm.lifetime.start.p0(i64 8, ptr %9) #9
  %60 = load ptr, ptr %4, align 8, !tbaa !7
  %61 = getelementptr inbounds nuw %struct.CordRep, ptr %60, i32 0, i32 0
  %62 = getelementptr inbounds nuw %struct.Generic, ptr %61, i32 0, i32 3
  %63 = load i8, ptr %62, align 1, !tbaa !35
  %64 = zext i8 %63 to i32
  %65 = icmp ne i32 %64, 0
  br i1 %65, label %66, label %72

66:                                               ; preds = %57
  %67 = load ptr, ptr %4, align 8, !tbaa !7
  %68 = getelementptr inbounds nuw %struct.CordRep, ptr %67, i32 0, i32 0
  %69 = getelementptr inbounds nuw %struct.Generic, ptr %68, i32 0, i32 3
  %70 = load i8, ptr %69, align 1, !tbaa !35
  %71 = zext i8 %70 to i64
  br label %119

72:                                               ; preds = %57
  %73 = load ptr, ptr %4, align 8, !tbaa !7
  %74 = getelementptr inbounds nuw %struct.CordRep, ptr %73, i32 0, i32 1
  %75 = getelementptr inbounds nuw %struct.Concatenation, ptr %74, i32 0, i32 0
  %76 = load ptr, ptr %75, align 8, !tbaa !17
  %77 = load i8, ptr %76, align 1, !tbaa !17
  %78 = sext i8 %77 to i32
  %79 = icmp ne i32 %78, 0
  br i1 %79, label %80, label %109

80:                                               ; preds = %72
  %81 = load ptr, ptr %4, align 8, !tbaa !7
  %82 = getelementptr inbounds nuw %struct.CordRep, ptr %81, i32 0, i32 0
  %83 = getelementptr inbounds nuw %struct.Generic, ptr %82, i32 0, i32 4
  %84 = load i64, ptr %83, align 8, !tbaa !24
  %85 = load ptr, ptr %4, align 8, !tbaa !7
  %86 = getelementptr inbounds nuw %struct.CordRep, ptr %85, i32 0, i32 1
  %87 = getelementptr inbounds nuw %struct.Concatenation, ptr %86, i32 0, i32 1
  %88 = load ptr, ptr %87, align 8, !tbaa !17
  %89 = load i8, ptr %88, align 1, !tbaa !17
  %90 = sext i8 %89 to i32
  %91 = icmp ne i32 %90, 0
  br i1 %91, label %92, label %98

92:                                               ; preds = %80
  %93 = load ptr, ptr %4, align 8, !tbaa !7
  %94 = getelementptr inbounds nuw %struct.CordRep, ptr %93, i32 0, i32 1
  %95 = getelementptr inbounds nuw %struct.Concatenation, ptr %94, i32 0, i32 1
  %96 = load ptr, ptr %95, align 8, !tbaa !17
  %97 = call i64 @strlen(ptr noundef %96) #10
  br label %106

98:                                               ; preds = %80
  %99 = load ptr, ptr %4, align 8, !tbaa !7
  %100 = getelementptr inbounds nuw %struct.CordRep, ptr %99, i32 0, i32 1
  %101 = getelementptr inbounds nuw %struct.Concatenation, ptr %100, i32 0, i32 1
  %102 = load ptr, ptr %101, align 8, !tbaa !17
  %103 = getelementptr inbounds nuw %struct.CordRep, ptr %102, i32 0, i32 0
  %104 = getelementptr inbounds nuw %struct.Generic, ptr %103, i32 0, i32 4
  %105 = load i64, ptr %104, align 8, !tbaa !24
  br label %106

106:                                              ; preds = %98, %92
  %107 = phi i64 [ %97, %92 ], [ %105, %98 ]
  %108 = sub i64 %84, %107
  br label %117

109:                                              ; preds = %72
  %110 = load ptr, ptr %4, align 8, !tbaa !7
  %111 = getelementptr inbounds nuw %struct.CordRep, ptr %110, i32 0, i32 1
  %112 = getelementptr inbounds nuw %struct.Concatenation, ptr %111, i32 0, i32 0
  %113 = load ptr, ptr %112, align 8, !tbaa !17
  %114 = getelementptr inbounds nuw %struct.CordRep, ptr %113, i32 0, i32 0
  %115 = getelementptr inbounds nuw %struct.Generic, ptr %114, i32 0, i32 4
  %116 = load i64, ptr %115, align 8, !tbaa !24
  br label %117

117:                                              ; preds = %109, %106
  %118 = phi i64 [ %108, %106 ], [ %116, %109 ]
  br label %119

119:                                              ; preds = %117, %66
  %120 = phi i64 [ %71, %66 ], [ %118, %117 ]
  store i64 %120, ptr %9, align 8, !tbaa !13
  %121 = load ptr, ptr %3, align 8, !tbaa !57
  %122 = getelementptr inbounds nuw %struct.CORD_pe, ptr %121, i32 1
  store ptr %122, ptr %3, align 8, !tbaa !57
  %123 = load i64, ptr %5, align 8, !tbaa !13
  %124 = load i64, ptr %6, align 8, !tbaa !13
  %125 = load i64, ptr %9, align 8, !tbaa !13
  %126 = add i64 %124, %125
  %127 = icmp uge i64 %123, %126
  br i1 %127, label %128, label %142

128:                                              ; preds = %119
  %129 = load ptr, ptr %8, align 8, !tbaa !22
  %130 = getelementptr inbounds nuw %struct.Concatenation, ptr %129, i32 0, i32 1
  %131 = load ptr, ptr %130, align 8, !tbaa !28
  store ptr %131, ptr %4, align 8, !tbaa !7
  %132 = load ptr, ptr %3, align 8, !tbaa !57
  %133 = getelementptr inbounds nuw %struct.CORD_pe, ptr %132, i32 0, i32 0
  store ptr %131, ptr %133, align 8, !tbaa !59
  %134 = load i64, ptr %6, align 8, !tbaa !13
  %135 = load i64, ptr %9, align 8, !tbaa !13
  %136 = add i64 %134, %135
  store i64 %136, ptr %6, align 8, !tbaa !13
  %137 = load ptr, ptr %3, align 8, !tbaa !57
  %138 = getelementptr inbounds nuw %struct.CORD_pe, ptr %137, i32 0, i32 1
  store i64 %136, ptr %138, align 8, !tbaa !62
  %139 = load i64, ptr %9, align 8, !tbaa !13
  %140 = load i64, ptr %7, align 8, !tbaa !13
  %141 = sub i64 %140, %139
  store i64 %141, ptr %7, align 8, !tbaa !13
  br label %152

142:                                              ; preds = %119
  %143 = load ptr, ptr %8, align 8, !tbaa !22
  %144 = getelementptr inbounds nuw %struct.Concatenation, ptr %143, i32 0, i32 0
  %145 = load ptr, ptr %144, align 8, !tbaa !26
  store ptr %145, ptr %4, align 8, !tbaa !7
  %146 = load ptr, ptr %3, align 8, !tbaa !57
  %147 = getelementptr inbounds nuw %struct.CORD_pe, ptr %146, i32 0, i32 0
  store ptr %145, ptr %147, align 8, !tbaa !59
  %148 = load i64, ptr %6, align 8, !tbaa !13
  %149 = load ptr, ptr %3, align 8, !tbaa !57
  %150 = getelementptr inbounds nuw %struct.CORD_pe, ptr %149, i32 0, i32 1
  store i64 %148, ptr %150, align 8, !tbaa !62
  %151 = load i64, ptr %9, align 8, !tbaa !13
  store i64 %151, ptr %7, align 8, !tbaa !13
  br label %152

152:                                              ; preds = %142, %128
  %153 = load ptr, ptr %2, align 8, !tbaa !53
  %154 = getelementptr inbounds %struct.CORD_Pos, ptr %153, i64 0
  %155 = getelementptr inbounds nuw %struct.CORD_Pos, ptr %154, i32 0, i32 1
  %156 = load i32, ptr %155, align 8, !tbaa !55
  %157 = add nsw i32 %156, 1
  store i32 %157, ptr %155, align 8, !tbaa !55
  call void @llvm.lifetime.end.p0(i64 8, ptr %9) #9
  call void @llvm.lifetime.end.p0(i64 8, ptr %8) #9
  br label %43, !llvm.loop !68

158:                                              ; preds = %55
  %159 = load ptr, ptr %4, align 8, !tbaa !7
  %160 = load i8, ptr %159, align 1, !tbaa !17
  %161 = sext i8 %160 to i32
  %162 = icmp ne i32 %161, 0
  br i1 %162, label %163, label %178

163:                                              ; preds = %158
  %164 = load ptr, ptr %4, align 8, !tbaa !7
  %165 = load ptr, ptr %2, align 8, !tbaa !53
  %166 = getelementptr inbounds %struct.CORD_Pos, ptr %165, i64 0
  %167 = getelementptr inbounds nuw %struct.CORD_Pos, ptr %166, i32 0, i32 2
  store ptr %164, ptr %167, align 8, !tbaa !65
  %168 = load i64, ptr %6, align 8, !tbaa !13
  %169 = load ptr, ptr %2, align 8, !tbaa !53
  %170 = getelementptr inbounds %struct.CORD_Pos, ptr %169, i64 0
  %171 = getelementptr inbounds nuw %struct.CORD_Pos, ptr %170, i32 0, i32 3
  store i64 %168, ptr %171, align 8, !tbaa !64
  %172 = load i64, ptr %6, align 8, !tbaa !13
  %173 = load i64, ptr %7, align 8, !tbaa !13
  %174 = add i64 %172, %173
  %175 = load ptr, ptr %2, align 8, !tbaa !53
  %176 = getelementptr inbounds %struct.CORD_Pos, ptr %175, i64 0
  %177 = getelementptr inbounds nuw %struct.CORD_Pos, ptr %176, i32 0, i32 4
  store i64 %174, ptr %177, align 8, !tbaa !66
  br label %182

178:                                              ; preds = %158
  %179 = load ptr, ptr %2, align 8, !tbaa !53
  %180 = getelementptr inbounds %struct.CORD_Pos, ptr %179, i64 0
  %181 = getelementptr inbounds nuw %struct.CORD_Pos, ptr %180, i32 0, i32 4
  store i64 0, ptr %181, align 8, !tbaa !66
  br label %182

182:                                              ; preds = %178, %163
  %183 = load i64, ptr %5, align 8, !tbaa !13
  %184 = load i64, ptr %6, align 8, !tbaa !13
  %185 = load i64, ptr %7, align 8, !tbaa !13
  %186 = add i64 %184, %185
  %187 = icmp uge i64 %183, %186
  br i1 %187, label %188, label %192

188:                                              ; preds = %182
  %189 = load ptr, ptr %2, align 8, !tbaa !53
  %190 = getelementptr inbounds %struct.CORD_Pos, ptr %189, i64 0
  %191 = getelementptr inbounds nuw %struct.CORD_Pos, ptr %190, i32 0, i32 1
  store i32 1431655765, ptr %191, align 8, !tbaa !55
  br label %192

192:                                              ; preds = %188, %182
  call void @llvm.lifetime.end.p0(i64 8, ptr %7) #9
  call void @llvm.lifetime.end.p0(i64 8, ptr %6) #9
  call void @llvm.lifetime.end.p0(i64 8, ptr %5) #9
  call void @llvm.lifetime.end.p0(i64 8, ptr %4) #9
  call void @llvm.lifetime.end.p0(i64 8, ptr %3) #9
  ret void
}