; Function Attrs: nofree nounwind memory(read, argmem: readwrite, inaccessiblemem: none) uwtable
define internal fastcc void @CORD_extend_path(ptr noundef captures(none) %0) unnamed_addr #11 {
  %2 = getelementptr inbounds nuw i8, ptr %0, i64 40
  %3 = getelementptr inbounds nuw i8, ptr %0, i64 8
  %4 = load i32, ptr %3, align 8, !tbaa !47
  %5 = sext i32 %4 to i64
  %6 = getelementptr inbounds [49 x %struct.CORD_pe], ptr %2, i64 0, i64 %5
  %7 = load ptr, ptr %6, align 8, !tbaa !50
  %8 = load i64, ptr %0, align 8, !tbaa !52
  %9 = getelementptr inbounds nuw i8, ptr %6, i64 8
  %10 = load i64, ptr %9, align 8, !tbaa !53
  %11 = load i8, ptr %7, align 1, !tbaa !11
  %.not = icmp eq i8 %11, 0
  br i1 %.not, label %.lr.ph.preheader, label %12

12:                                               ; preds = %1
  %13 = tail call i64 @strlen(ptr noundef nonnull dereferenceable(1) %7) #18
  br label %.critedge

.lr.ph.preheader:                                 ; preds = %1
  %14 = getelementptr inbounds nuw i8, ptr %7, i64 8
  %15 = load i64, ptr %14, align 8, !tbaa !17
  br label %.lr.ph

.lr.ph:                                           ; preds = %.lr.ph.preheader, %46
  %16 = phi i32 [ %53, %46 ], [ %4, %.lr.ph.preheader ]
  %.070 = phi ptr [ %48, %46 ], [ %6, %.lr.ph.preheader ]
  %.04869 = phi ptr [ %.sink75, %46 ], [ %7, %.lr.ph.preheader ]
  %.04968 = phi i64 [ %.150, %46 ], [ %15, %.lr.ph.preheader ]
  %.05167 = phi i64 [ %.sink, %46 ], [ %10, %.lr.ph.preheader ]
  %17 = getelementptr inbounds nuw i8, ptr %.04869, i64 1
  %18 = load i8, ptr %17, align 1, !tbaa !13
  %19 = icmp eq i8 %18, 1
  br i1 %19, label %20, label %59

20:                                               ; preds = %.lr.ph
  %21 = getelementptr inbounds nuw i8, ptr %.04869, i64 16
  %22 = getelementptr inbounds nuw i8, ptr %.04869, i64 3
  %23 = load i8, ptr %22, align 1, !tbaa !27
  %.not55 = icmp eq i8 %23, 0
  br i1 %.not55, label %26, label %24

24:                                               ; preds = %20
  %25 = zext i8 %23 to i64
  br label %46

26:                                               ; preds = %20
  %27 = load ptr, ptr %21, align 8, !tbaa !11
  %28 = load i8, ptr %27, align 1, !tbaa !11
  %.not56 = icmp eq i8 %28, 0
  br i1 %.not56, label %43, label %29

29:                                               ; preds = %26
  %30 = getelementptr inbounds nuw i8, ptr %.04869, i64 8
  %31 = load i64, ptr %30, align 8, !tbaa !17
  %32 = getelementptr inbounds nuw i8, ptr %.04869, i64 24
  %33 = load ptr, ptr %32, align 8, !tbaa !11
  %34 = load i8, ptr %33, align 1, !tbaa !11
  %.not57 = icmp eq i8 %34, 0
  br i1 %.not57, label %37, label %35

35:                                               ; preds = %29
  %36 = tail call i64 @strlen(ptr noundef nonnull dereferenceable(1) %33) #18
  br label %40

37:                                               ; preds = %29
  %38 = getelementptr inbounds nuw i8, ptr %33, i64 8
  %39 = load i64, ptr %38, align 8, !tbaa !17
  br label %40

40:                                               ; preds = %37, %35
  %41 = phi i64 [ %36, %35 ], [ %39, %37 ]
  %42 = sub i64 %31, %41
  br label %46

43:                                               ; preds = %26
  %44 = getelementptr inbounds nuw i8, ptr %27, i64 8
  %45 = load i64, ptr %44, align 8, !tbaa !17
  br label %46

46:                                               ; preds = %40, %43, %24
  %47 = phi i64 [ %25, %24 ], [ %42, %40 ], [ %45, %43 ]
  %48 = getelementptr inbounds nuw i8, ptr %.070, i64 16
  %49 = add i64 %47, %.05167
  %.not58 = icmp ult i64 %8, %49
  %50 = getelementptr inbounds nuw i8, ptr %.04869, i64 24
  %51 = sub i64 %.04968, %47
  %.sink75.in = select i1 %.not58, ptr %21, ptr %50
  %.sink = select i1 %.not58, i64 %.05167, i64 %49
  %.150 = select i1 %.not58, i64 %47, i64 %51
  %.sink75 = load ptr, ptr %.sink75.in, align 8, !tbaa !59
  store ptr %.sink75, ptr %48, align 8, !tbaa !50
  %52 = getelementptr inbounds nuw i8, ptr %.070, i64 24
  store i64 %.sink, ptr %52, align 8, !tbaa !53
  %53 = add nsw i32 %16, 1
  store i32 %53, ptr %3, align 8, !tbaa !47
  %54 = load i8, ptr %.sink75, align 1, !tbaa !11
  %.not54 = icmp eq i8 %54, 0
  br i1 %.not54, label %.lr.ph, label %.critedge, !llvm.loop !60

.critedge:                                        ; preds = %46, %12
  %.051.lcssa = phi i64 [ %10, %12 ], [ %.sink, %46 ]
  %.049.lcssa = phi i64 [ %13, %12 ], [ %.150, %46 ]
  %.048.lcssa = phi ptr [ %7, %12 ], [ %.sink75, %46 ]
  %55 = getelementptr inbounds nuw i8, ptr %0, i64 16
  store ptr %.048.lcssa, ptr %55, align 8, !tbaa !56
  %56 = getelementptr inbounds nuw i8, ptr %0, i64 24
  store i64 %.051.lcssa, ptr %56, align 8, !tbaa !55
  %57 = add i64 %.049.lcssa, %.051.lcssa
  %58 = getelementptr inbounds nuw i8, ptr %0, i64 32
  store i64 %57, ptr %58, align 8, !tbaa !57
  br label %61

59:                                               ; preds = %.lr.ph
  %60 = getelementptr inbounds nuw i8, ptr %0, i64 32
  store i64 0, ptr %60, align 8, !tbaa !57
  %.pre = add i64 %.04968, %.05167
  br label %61

61:                                               ; preds = %59, %.critedge
  %.pre-phi = phi i64 [ %.pre, %59 ], [ %57, %.critedge ]
  %.not60 = icmp ult i64 %8, %.pre-phi
  br i1 %.not60, label %63, label %62

62:                                               ; preds = %61
  store i32 1431655765, ptr %3, align 8, !tbaa !47
  br label %63

63:                                               ; preds = %62, %61
  ret void
}